target datalayout = "e-m:e-p270:32:32-p271:32:32-p272:64:64-i64:64-i128:128-f80:128-n8:16:32:64-S128"
target triple = "x86_64-pc-linux-gnu"

%struct._priv_exr_context_t = type { i8, i8, i8, i8, i8, i8, i8, i8, %struct.exr_attr_string_t, %struct.exr_attr_string_t, ptr, ptr, ptr, ptr, ptr, ptr, ptr, ptr, i32, i32, i32, i32, i32, float, ptr, ptr, ptr, i64, ptr, ptr, i64, i32, i32, i32, i32, %struct._priv_exr_part_t, ptr, ptr, %struct.exr_attribute_list, %union.pthread_mutex_t, i8, i8, [2 x i8], i32 }
%struct.exr_attr_string_t = type { i32, i32, ptr }
%struct._priv_exr_part_t = type { i32, i32, %struct.exr_attribute_list, ptr, ptr, ptr, ptr, ptr, ptr, ptr, ptr, ptr, ptr, ptr, ptr, ptr, ptr, %struct.exr_attr_box2i_t, %struct.exr_attr_box2i_t, i32, i32, i32, float, i32, i32, ptr, ptr, ptr, ptr, i64, i16, i16, i32, i64, i64 }
%struct.exr_attr_box2i_t = type { %struct.exr_attr_v2i_t, %struct.exr_attr_v2i_t }
%struct.exr_attr_v2i_t = type { i32, i32 }
%struct.exr_attribute_list = type { i32, i32, ptr, ptr }
%union.pthread_mutex_t = type { %struct.__pthread_mutex_s }
%struct.__pthread_mutex_s = type { i32, i32, i32, i32, i32, i16, i16, %struct.__pthread_internal_list }
%struct.__pthread_internal_list = type { ptr, ptr }

; Function Attrs: nounwind uwtable
define i32 @exr_uncompress_buffer(ptr noundef %0, ptr noundef %1, i64 noundef %2, ptr noundef %3, i64 noundef %4, ptr noundef %5) #0 {
  %7 = alloca i32, align 4
  %8 = alloca ptr, align 8
  %9 = alloca ptr, align 8
  %10 = alloca i64, align 8
  %11 = alloca ptr, align 8
  %12 = alloca i64, align 8
  %13 = alloca ptr, align 8
  %14 = alloca ptr, align 8
  %15 = alloca i32, align 4
  %16 = alloca i64, align 8
  %17 = alloca i32, align 4
  store ptr %0, ptr %8, align 8, !tbaa !7
  store ptr %1, ptr %9, align 8, !tbaa !12
  store i64 %2, ptr %10, align 8, !tbaa !3
  store ptr %3, ptr %11, align 8, !tbaa !12
  store i64 %4, ptr %12, align 8, !tbaa !3
  store ptr %5, ptr %13, align 8, !tbaa !13
  call void @llvm.lifetime.start.p0(i64 8, ptr %14) #4
  call void @llvm.lifetime.start.p0(i64 4, ptr %15) #4
  call void @llvm.lifetime.start.p0(i64 8, ptr %16) #4
  %18 = load ptr, ptr %8, align 8, !tbaa !7
  %19 = icmp ne ptr %18, null
  br i1 %19, label %20, label %24

20:                                               ; preds = %6
  %21 = load ptr, ptr %8, align 8, !tbaa !7
  %22 = getelementptr inbounds nuw %struct._priv_exr_context_t, ptr %21, i32 0, i32 16
  %23 = load ptr, ptr %22, align 8, !tbaa !15
  br label %25

24:                                               ; preds = %6
  br label %25

25:                                               ; preds = %24, %20
  %26 = phi ptr [ %23, %20 ], [ @internal_exr_alloc, %24 ]
  %27 = load ptr, ptr %8, align 8, !tbaa !7
  %28 = icmp ne ptr %27, null
  br i1 %28, label %29, label %33

29:                                               ; preds = %25
  %30 = load ptr, ptr %8, align 8, !tbaa !7
  %31 = getelementptr inbounds nuw %struct._priv_exr_context_t, ptr %30, i32 0, i32 17
  %32 = load ptr, ptr %31, align 8, !tbaa !29
  br label %34

33:                                               ; preds = %25
  br label %34

34:                                               ; preds = %33, %29
  %35 = phi ptr [ %32, %29 ], [ @internal_exr_free, %33 ]
  call void @libdeflate_set_memory_allocator(ptr noundef %26, ptr noundef %35)
  %36 = call ptr @libdeflate_alloc_decompressor()
  store ptr %36, ptr %14, align 8, !tbaa !32
  %37 = load ptr, ptr %14, align 8, !tbaa !32
  %38 = icmp ne ptr %37, null
  br i1 %38, label %39, label %67

39:                                               ; preds = %34
  %40 = load ptr, ptr %14, align 8, !tbaa !32
  %41 = load ptr, ptr %9, align 8, !tbaa !12
  %42 = load i64, ptr %10, align 8, !tbaa !3
  %43 = load ptr, ptr %11, align 8, !tbaa !12
  %44 = load i64, ptr %12, align 8, !tbaa !3
  %45 = load ptr, ptr %13, align 8, !tbaa !13
  %46 = call i32 @libdeflate_zlib_decompress_ex(ptr noundef %40, ptr noundef %41, i64 noundef %42, ptr noundef %43, i64 noundef %44, ptr noundef %16, ptr noundef %45)
  store i32 %46, ptr %15, align 4, !tbaa !10
  %47 = load ptr, ptr %14, align 8, !tbaa !32
  call void @libdeflate_free_decompressor(ptr noundef %47)
  %48 = load i32, ptr %15, align 4, !tbaa !10
  %49 = icmp eq i32 %48, 0
  br i1 %49, label %50, label %56

50:                                               ; preds = %39
  %51 = load i64, ptr %10, align 8, !tbaa !3
  %52 = load i64, ptr %16, align 8, !tbaa !3
  %53 = icmp eq i64 %51, %52
  br i1 %53, label %54, label %55

54:                                               ; preds = %50
  store i32 0, ptr %7, align 4
  store i32 1, ptr %17, align 4
  br label %68

55:                                               ; preds = %50
  br label %66

56:                                               ; preds = %39
  %57 = load i32, ptr %15, align 4, !tbaa !10
  %58 = icmp eq i32 %57, 3
  br i1 %58, label %59, label %60

59:                                               ; preds = %56
  store i32 1, ptr %7, align 4
  store i32 1, ptr %17, align 4
  br label %68

60:                                               ; preds = %56
  %61 = load i32, ptr %15, align 4, !tbaa !10
  %62 = icmp eq i32 %61, 2
  br i1 %62, label %63, label %64

63:                                               ; preds = %60
  store i32 0, ptr %7, align 4
  store i32 1, ptr %17, align 4
  br label %68

64:                                               ; preds = %60
  br label %65

65:                                               ; preds = %64
  br label %66

66:                                               ; preds = %65, %55
  store i32 23, ptr %7, align 4
  store i32 1, ptr %17, align 4
  br label %68

67:                                               ; preds = %34
  store i32 1, ptr %7, align 4
  store i32 1, ptr %17, align 4
  br label %68

68:                                               ; preds = %67, %66, %63, %59, %54
  call void @llvm.lifetime.end.p0(i64 8, ptr %16) #4
  call void @llvm.lifetime.end.p0(i64 4, ptr %15) #4
  call void @llvm.lifetime.end.p0(i64 8, ptr %14) #4
  %69 = load i32, ptr %7, align 4
  ret i32 %69
}