; Function Attrs: nounwind uwtable
define range(i32 0, 24) i32 @exr_uncompress_buffer(ptr noundef readonly %0, ptr noundef %1, i64 noundef %2, ptr noundef %3, i64 noundef %4, ptr noundef %5) local_unnamed_addr #0 {
  %7 = alloca i64, align 8
  call void @llvm.lifetime.start.p0(i64 8, ptr nonnull %7) #6
  %.not = icmp eq ptr %0, null
  br i1 %.not, label %.thread, label %8

8:                                                ; preds = %6
  %9 = getelementptr inbounds nuw i8, ptr %0, i64 88
  %10 = load ptr, ptr %9, align 8, !tbaa !7
  %11 = getelementptr inbounds nuw i8, ptr %0, i64 96
  %12 = load ptr, ptr %11, align 8, !tbaa !23
  br label %.thread

.thread:                                          ; preds = %6, %8
  %13 = phi ptr [ %10, %8 ], [ @internal_exr_alloc, %6 ]
  %14 = phi ptr [ %12, %8 ], [ @internal_exr_free, %6 ]
  tail call void @libdeflate_set_memory_allocator(ptr noundef %13, ptr noundef %14) #6
  %15 = tail call ptr @libdeflate_alloc_decompressor() #6
  %.not19 = icmp eq ptr %15, null
  br i1 %.not19, label %23, label %16

16:                                               ; preds = %.thread
  %17 = call i32 @libdeflate_zlib_decompress_ex(ptr noundef nonnull %15, ptr noundef %1, i64 noundef %2, ptr noundef %3, i64 noundef %4, ptr noundef nonnull %7, ptr noundef %5) #6
  call void @libdeflate_free_decompressor(ptr noundef nonnull %15) #6
  switch i32 %17, label %22 [
    i32 0, label %18
    i32 3, label %23
    i32 2, label %21
  ]

18:                                               ; preds = %16
  %19 = load i64, ptr %7, align 8, !tbaa !24
  %20 = icmp eq i64 %2, %19
  br i1 %20, label %23, label %22

21:                                               ; preds = %16
  br label %23

22:                                               ; preds = %16, %18
  br label %23

23:                                               ; preds = %.thread, %16, %18, %22, %21
  %.0 = phi i32 [ 23, %22 ], [ 0, %21 ], [ 0, %18 ], [ 1, %16 ], [ 1, %.thread ]
  call void @llvm.lifetime.end.p0(i64 8, ptr nonnull %7) #6
  ret i32 %.0
}